; Function Attrs: mustprogress uwtable
define noundef zeroext i1 @_ZNK6Assimp8Importer20IsExtensionSupportedEPKc(ptr nocapture noundef nonnull readonly align 8 dereferenceable(8) %this, ptr noundef %szExtension) local_unnamed_addr #2 align 2 {
entry:
  %call.i = tail call noundef i64 @_ZNK6Assimp8Importer16GetImporterIndexEPKc(ptr noundef nonnull align 8 dereferenceable(8) %this, ptr noundef %szExtension)
  %0 = load ptr, ptr %this, align 8
  %mImporter.i.i = getelementptr inbounds i8, ptr %0, i64 32
  %_M_finish.i.i.i = getelementptr inbounds i8, ptr %0, i64 40
  %1 = load ptr, ptr %_M_finish.i.i.i, align 8
  %2 = load ptr, ptr %mImporter.i.i, align 8
  %sub.ptr.lhs.cast.i.i.i = ptrtoint ptr %1 to i64
  %sub.ptr.rhs.cast.i.i.i = ptrtoint ptr %2 to i64
  %sub.ptr.sub.i.i.i = sub i64 %sub.ptr.lhs.cast.i.i.i, %sub.ptr.rhs.cast.i.i.i
  %sub.ptr.div.i.i.i = ashr exact i64 %sub.ptr.sub.i.i.i, 3
  %cmp.not.i.i = icmp ugt i64 %sub.ptr.div.i.i.i, %call.i
  br i1 %cmp.not.i.i, label %if.end.i.i, label %_ZNK6Assimp8Importer11GetImporterEPKc.exit

if.end.i.i:                                       ; preds = %entry
  %add.ptr.i.i.i = getelementptr inbounds ptr, ptr %2, i64 %call.i
  %3 = load ptr, ptr %add.ptr.i.i.i, align 8
  %4 = icmp ne ptr %3, null
  br label %_ZNK6Assimp8Importer11GetImporterEPKc.exit

_ZNK6Assimp8Importer11GetImporterEPKc.exit:       ; preds = %entry, %if.end.i.i
  %retval.0.i.i = phi i1 [ %4, %if.end.i.i ], [ false, %entry ]
  ret i1 %retval.0.i.i
}